; Function Attrs: mustprogress nofree norecurse nosync nounwind willreturn memory(readwrite, inaccessiblemem: none) uwtable
define dso_local void @_ZN7DfgEdge12unlinkSourceEv(ptr noundef nonnull align 8 dereferenceable(32) %0) #8 align 2 {
  %2 = getelementptr inbounds i8, ptr %0, i64 16
  %3 = load ptr, ptr %2, align 8
  %.not = icmp eq ptr %3, null
  br i1 %.not, label %20, label %4

4:                                                ; preds = %1
  %5 = getelementptr inbounds i8, ptr %0, i64 8
  %6 = load ptr, ptr %5, align 8
  %.not3 = icmp eq ptr %6, null
  %.pre = load ptr, ptr %0, align 8
  br i1 %.not3, label %8, label %7

7:                                                ; preds = %4
  store ptr %.pre, ptr %6, align 8
  br label %8

8:                                                ; preds = %7, %4
  %.not4 = icmp eq ptr %.pre, null
  br i1 %.not4, label %12, label %9

9:                                                ; preds = %8
  %10 = load ptr, ptr %5, align 8
  %11 = getelementptr inbounds i8, ptr %.pre, i64 8
  store ptr %10, ptr %11, align 8
  br label %12

12:                                               ; preds = %9, %8
  %13 = load ptr, ptr %2, align 8
  %14 = getelementptr inbounds i8, ptr %13, i64 24
  %15 = load ptr, ptr %14, align 8
  %16 = icmp eq ptr %15, %0
  br i1 %16, label %17, label %19

17:                                               ; preds = %12
  %18 = load ptr, ptr %0, align 8
  store ptr %18, ptr %14, align 8
  br label %19

19:                                               ; preds = %17, %12
  tail call void @llvm.memset.p0.i64(ptr noundef nonnull align 8 dereferenceable(24) %0, i8 0, i64 24, i1 false)
  br label %20

20:                                               ; preds = %1, %19
  ret void
}